; ModuleID = '52/4501.c'
source_filename = "52/4501.c"
target datalayout = "e-m:e-p270:32:32-p271:32:32-p272:64:64-i64:64-f80:128-n8:16:32:64-S128"
target triple = "x86_64-pc-linux-gnu"

@.str = private unnamed_addr constant [6 x i8] c"%d %d\00", align 1
@.str.1 = private unnamed_addr constant [3 x i8] c"%d\00", align 1
@.str.2 = private unnamed_addr constant [5 x i8] c"%d%c\00", align 1

; Function Attrs: noinline nounwind uwtable
define dso_local i32 @main() #0 {
  %1 = alloca i32, align 4
  %2 = alloca i32, align 4
  %3 = alloca i32, align 4
  %4 = alloca [100 x i32], align 16
  %5 = alloca i32, align 4
  %6 = alloca i32, align 4
  %7 = alloca i32, align 4
  %8 = alloca i32, align 4
  store i32 0, i32* %1, align 4
  %9 = call i32 (i8*, ...) @__isoc99_scanf(i8* getelementptr inbounds ([6 x i8], [6 x i8]* @.str, i64 0, i64 0), i32* %2, i32* %3)
  store i32 0, i32* %5, align 4
  br label %10

10:                                               ; preds = %20, %0
  %11 = load i32, i32* %5, align 4
  %12 = load i32, i32* %2, align 4
  %13 = icmp slt i32 %11, %12
  br i1 %13, label %14, label %23

14:                                               ; preds = %10
  %15 = getelementptr inbounds [100 x i32], [100 x i32]* %4, i64 0, i64 0
  %16 = load i32, i32* %5, align 4
  %17 = sext i32 %16 to i64
  %18 = getelementptr inbounds i32, i32* %15, i64 %17
  %19 = call i32 (i8*, ...) @__isoc99_scanf(i8* getelementptr inbounds ([3 x i8], [3 x i8]* @.str.1, i64 0, i64 0), i32* %18)
  br label %20

20:                                               ; preds = %14
  %21 = load i32, i32* %5, align 4
  %22 = add nsw i32 %21, 1
  store i32 %22, i32* %5, align 4
  br label %10

23:                                               ; preds = %10
  %24 = load i32, i32* %2, align 4
  %25 = load i32, i32* %3, align 4
  %26 = sub nsw i32 %24, %25
  store i32 %26, i32* %6, align 4
  br label %27

27:                                               ; preds = %80, %23
  %28 = load i32, i32* %6, align 4
  %29 = load i32, i32* %2, align 4
  %30 = icmp slt i32 %28, %29
  br i1 %30, label %31, label %83

31:                                               ; preds = %27
  store i32 0, i32* %7, align 4
  br label %32

32:                                               ; preds = %76, %31
  %33 = load i32, i32* %7, align 4
  %34 = load i32, i32* %2, align 4
  %35 = load i32, i32* %3, align 4
  %36 = sub nsw i32 %34, %35
  %37 = icmp slt i32 %33, %36
  br i1 %37, label %38, label %79

38:                                               ; preds = %32
  %39 = getelementptr inbounds [100 x i32], [100 x i32]* %4, i64 0, i64 0
  %40 = load i32, i32* %6, align 4
  %41 = sext i32 %40 to i64
  %42 = getelementptr inbounds i32, i32* %39, i64 %41
  %43 = load i32, i32* %7, align 4
  %44 = sext i32 %43 to i64
  %45 = sub i64 0, %44
  %46 = getelementptr inbounds i32, i32* %42, i64 %45
  %47 = load i32, i32* %46, align 4
  store i32 %47, i32* %8, align 4
  %48 = getelementptr inbounds [100 x i32], [100 x i32]* %4, i64 0, i64 0
  %49 = load i32, i32* %6, align 4
  %50 = sext i32 %49 to i64
  %51 = getelementptr inbounds i32, i32* %48, i64 %50
  %52 = getelementptr inbounds i32, i32* %51, i64 -1
  %53 = load i32, i32* %7, align 4
  %54 = sext i32 %53 to i64
  %55 = sub i64 0, %54
  %56 = getelementptr inbounds i32, i32* %52, i64 %55
  %57 = load i32, i32* %56, align 4
  %58 = getelementptr inbounds [100 x i32], [100 x i32]* %4, i64 0, i64 0
  %59 = load i32, i32* %6, align 4
  %60 = sext i32 %59 to i64
  %61 = getelementptr inbounds i32, i32* %58, i64 %60
  %62 = load i32, i32* %7, align 4
  %63 = sext i32 %62 to i64
  %64 = sub i64 0, %63
  %65 = getelementptr inbounds i32, i32* %61, i64 %64
  store i32 %57, i32* %65, align 4
  %66 = load i32, i32* %8, align 4
  %67 = getelementptr inbounds [100 x i32], [100 x i32]* %4, i64 0, i64 0
  %68 = load i32, i32* %6, align 4
  %69 = sext i32 %68 to i64
  %70 = getelementptr inbounds i32, i32* %67, i64 %69
  %71 = getelementptr inbounds i32, i32* %70, i64 -1
  %72 = load i32, i32* %7, align 4
  %73 = sext i32 %72 to i64
  %74 = sub i64 0, %73
  %75 = getelementptr inbounds i32, i32* %71, i64 %74
  store i32 %66, i32* %75, align 4
  br label %76

76:                                               ; preds = %38
  %77 = load i32, i32* %7, align 4
  %78 = add nsw i32 %77, 1
  store i32 %78, i32* %7, align 4
  br label %32

79:                                               ; preds = %32
  br label %80

80:                                               ; preds = %79
  %81 = load i32, i32* %6, align 4
  %82 = add nsw i32 %81, 1
  store i32 %82, i32* %6, align 4
  br label %27

83:                                               ; preds = %27
  store i32 0, i32* %5, align 4
  br label %84

84:                                               ; preds = %101, %83
  %85 = load i32, i32* %5, align 4
  %86 = load i32, i32* %2, align 4
  %87 = icmp slt i32 %85, %86
  br i1 %87, label %88, label %104

88:                                               ; preds = %84
  %89 = getelementptr inbounds [100 x i32], [100 x i32]* %4, i64 0, i64 0
  %90 = load i32, i32* %5, align 4
  %91 = sext i32 %90 to i64
  %92 = getelementptr inbounds i32, i32* %89, i64 %91
  %93 = load i32, i32* %92, align 4
  %94 = load i32, i32* %5, align 4
  %95 = load i32, i32* %2, align 4
  %96 = sub nsw i32 %95, 1
  %97 = icmp eq i32 %94, %96
  %98 = zext i1 %97 to i64
  %99 = select i1 %97, i32 10, i32 32
  %100 = call i32 (i8*, ...) @printf(i8* getelementptr inbounds ([5 x i8], [5 x i8]* @.str.2, i64 0, i64 0), i32 %93, i32 %99)
  br label %101

101:                                              ; preds = %88
  %102 = load i32, i32* %5, align 4
  %103 = add nsw i32 %102, 1
  store i32 %103, i32* %5, align 4
  br label %84

104:                                              ; preds = %84
  ret i32 0
}

declare dso_local i32 @__isoc99_scanf(i8*, ...) #1

declare dso_local i32 @printf(i8*, ...) #1


!llvm.module.flags = !{!0}
!llvm.ident = !{!1}

!0 = !{i32 1, !"wchar_size", i32 4}
!1 = !{!"clang version 10.0.0-4ubuntu1 "}
